target datalayout = "e-m:e-p270:32:32-p271:32:32-p272:64:64-i64:64-i128:128-f80:128-n8:16:32:64-S128"
target triple = "x86_64-pc-linux-gnu"

%struct.TCGOp = type { i32, i32, %union.anon, [2 x i32], [0 x i64] }
%union.anon = type { %struct.QTailQLink }
%struct.QTailQLink = type { ptr, ptr }

; Function Attrs: noinline nounwind sspstrong uwtable
define dso_local ptr @tcg_gen_op5(i32 noundef %0, i32 noundef %1, i64 noundef %2, i64 noundef %3, i64 noundef %4, i64 noundef %5, i64 noundef %6) #0 {
  %8 = alloca i32, align 4
  %9 = alloca i32, align 4
  %10 = alloca i64, align 8
  %11 = alloca i64, align 8
  %12 = alloca i64, align 8
  %13 = alloca i64, align 8
  %14 = alloca i64, align 8
  %15 = alloca ptr, align 8
  store i32 %0, ptr %8, align 4
  store i32 %1, ptr %9, align 4
  store i64 %2, ptr %10, align 8
  store i64 %3, ptr %11, align 8
  store i64 %4, ptr %12, align 8
  store i64 %5, ptr %13, align 8
  store i64 %6, ptr %14, align 8
  call void @llvm.lifetime.start.p0(i64 8, ptr %15) #7
  %16 = load i32, ptr %8, align 4
  %17 = call ptr @tcg_emit_op(i32 noundef %16, i32 noundef 5)
  store ptr %17, ptr %15, align 8
  %18 = load i32, ptr %9, align 4
  %19 = load ptr, ptr %15, align 8
  %20 = load i32, ptr %19, align 8
  %21 = and i32 %18, 255
  %22 = shl i32 %21, 16
  %23 = and i32 %20, -16711681
  %24 = or i32 %23, %22
  store i32 %24, ptr %19, align 8
  %25 = load i64, ptr %10, align 8
  %26 = load ptr, ptr %15, align 8
  %27 = getelementptr inbounds nuw %struct.TCGOp, ptr %26, i32 0, i32 4
  %28 = getelementptr inbounds [0 x i64], ptr %27, i64 0, i64 0
  store i64 %25, ptr %28, align 8
  %29 = load i64, ptr %11, align 8
  %30 = load ptr, ptr %15, align 8
  %31 = getelementptr inbounds nuw %struct.TCGOp, ptr %30, i32 0, i32 4
  %32 = getelementptr inbounds [0 x i64], ptr %31, i64 0, i64 1
  store i64 %29, ptr %32, align 8
  %33 = load i64, ptr %12, align 8
  %34 = load ptr, ptr %15, align 8
  %35 = getelementptr inbounds nuw %struct.TCGOp, ptr %34, i32 0, i32 4
  %36 = getelementptr inbounds [0 x i64], ptr %35, i64 0, i64 2
  store i64 %33, ptr %36, align 8
  %37 = load i64, ptr %13, align 8
  %38 = load ptr, ptr %15, align 8
  %39 = getelementptr inbounds nuw %struct.TCGOp, ptr %38, i32 0, i32 4
  %40 = getelementptr inbounds [0 x i64], ptr %39, i64 0, i64 3
  store i64 %37, ptr %40, align 8
  %41 = load i64, ptr %14, align 8
  %42 = load ptr, ptr %15, align 8
  %43 = getelementptr inbounds nuw %struct.TCGOp, ptr %42, i32 0, i32 4
  %44 = getelementptr inbounds [0 x i64], ptr %43, i64 0, i64 4
  store i64 %41, ptr %44, align 8
  %45 = load ptr, ptr %15, align 8
  call void @llvm.lifetime.end.p0(i64 8, ptr %15) #7
  ret ptr %45
}