; Function Attrs: noinline nounwind sspstrong uwtable
define dso_local noundef ptr @tcg_gen_op5(i32 noundef %0, i32 noundef %1, i64 noundef %2, i64 noundef %3, i64 noundef %4, i64 noundef %5, i64 noundef %6) local_unnamed_addr #0 {
  %8 = tail call ptr @tcg_emit_op(i32 noundef %0, i32 noundef 5) #6
  %9 = load i32, ptr %8, align 8
  %10 = shl i32 %1, 16
  %11 = and i32 %10, 16711680
  %12 = and i32 %9, -16711681
  %13 = or disjoint i32 %12, %11
  store i32 %13, ptr %8, align 8
  %14 = getelementptr inbounds nuw i8, ptr %8, i64 32
  store i64 %2, ptr %14, align 8
  %15 = getelementptr inbounds nuw i8, ptr %8, i64 40
  store i64 %3, ptr %15, align 8
  %16 = getelementptr inbounds nuw i8, ptr %8, i64 48
  store i64 %4, ptr %16, align 8
  %17 = getelementptr inbounds nuw i8, ptr %8, i64 56
  store i64 %5, ptr %17, align 8
  %18 = getelementptr inbounds nuw i8, ptr %8, i64 64
  store i64 %6, ptr %18, align 8
  ret ptr %8
}